Certificate:
    Data:
        Version: 3 (0x2)
        Serial Number: 801 (0x321)
    Signature Algorithm: sha512WithRSAEncryption
        Issuer: C=IT, O=IGI, CN=Test CA
        Validity
            Not Before: Oct 15 15:57:05 2018 GMT
            Not After : Oct 12 15:57:05 2028 GMT
        Subject: C=IT, O=IGI, CN=storm dev
        Subject Public Key Info:
            Public Key Algorithm: rsaEncryption
                Public-Key: (2048 bit)
                Modulus:
                    00:cb:98:91:d4:9f:f5:a7:0a:1c:cf:b8:51:7d:2e:
                    fa:a9:c7:df:74:75:bb:81:1a:52:e0:a5:1e:48:56:
                    c5:85:39:bf:90:4a:2b:be:c5:ef:83:0a:4a:e0:86:
                    84:81:79:14:4f:8e:70:ba:8a:a3:68:07:a3:2c:be:
                    76:d6:fc:28:bf:91:31:67:45:eb:2e:b6:ce:31:bd:
                    32:d1:f4:a0:88:0c:e9:2f:a0:ee:77:8f:da:c1:1b:
                    50:ba:0d:09:05:29:12:b1:4c:98:28:fd:6a:c0:fc:
                    9b:d1:40:cd:5c:59:c4:7d:49:bf:c1:0f:a5:3a:42:
                    7c:41:0d:1e:25:2e:2e:2e:3d:0c:23:fb:9f:1f:46:
                    ec:f3:62:aa:a6:ca:85:a9:ea:ec:51:98:26:6e:1a:
                    bd:cd:0e:eb:22:49:b2:e6:c4:99:2f:6b:3c:ba:82:
                    09:46:74:b3:19:a6:dc:b9:a1:83:6d:d5:28:62:43:
                    ba:1b:f3:e1:1d:61:61:87:b2:cb:1b:14:49:02:de:
                    d9:10:ca:d7:0c:da:c6:c3:1c:f2:ab:48:27:8d:10:
                    17:8b:56:cb:5d:d4:f6:19:65:4c:78:25:cb:3d:be:
                    a5:93:77:ce:a2:77:97:de:b4:24:8e:aa:3b:dc:c6:
                    f8:57:d9:a9:ba:42:d9:7a:77:a4:4a:dc:76:07:2b:
                    43:c3
                Exponent: 65537 (0x10001)
        X509v3 extensions:
            X509v3 Basic Constraints: critical
                CA:FALSE
            X509v3 Subject Key Identifier: 
                AF:52:EA:AC:22:88:70:E5:C6:AA:AE:CC:AD:FB:CA:95:EB:17:3B:15
            X509v3 Key Usage: critical
                Digital Signature, Non Repudiation, Key Encipherment
            X509v3 Extended Key Usage: 
                TLS Web Server Authentication, TLS Web Client Authentication, Microsoft Server Gated Crypto, Netscape Server Gated Crypto, E-mail Protection
            X509v3 Authority Key Identifier: 
                keyid:91:77:36:7B:2E:B4:69:F3:27:EA:B7:F6:08:8B:4A:23:A2:11:49:C6

            X509v3 Subject Alternative Name: 
                DNS:storm.example, DNS:storm-alias.example, DNS:other.example, DNS:localhost
    Signature Algorithm: sha512WithRSAEncryption
         b5:36:9a:2d:e4:79:56:1a:1c:d0:34:e4:d8:06:2a:03:94:65:
         cc:a7:71:bf:88:c6:f9:1d:bf:20:18:d4:25:6a:8a:a5:5e:97:
         64:8e:23:d2:51:0a:fb:3a:96:68:f6:a3:75:bd:74:6d:3d:4d:
         05:54:1c:b4:43:ee:33:bd:66:80:ee:81:50:f4:9c:ea:38:74:
         22:f3:ab:b1:41:04:7f:f5:64:07:49:78:9e:73:a5:00:0d:8f:
         e6:c9:ec:bc:3b:f7:00:7e:9e:09:1a:9b:a4:40:a7:39:90:1c:
         fa:ca:ec:31:53:52:27:93:88:db:18:b3:f0:b7:7f:65:4e:06:
         c5:f5:b4:9e:6c:af:69:ef:da:ea:4c:e8:50:ed:dc:49:a7:fe:
         69:90:cf:77:69:58:49:0a:1c:50:5e:ab:26:b0:52:31:ca:6f:
         8a:11:78:80:c5:9e:4f:43:40:60:f3:99:46:4d:8d:51:5a:e5:
         04:90:9e:ce:40:4a:c5:35:b1:f1:d1:63:86:8b:42:73:79:7a:
         f7:33:d3:69:22:45:a2:82:0c:05:69:7d:00:2b:e5:c9:44:38:
         f8:ae:e1:81:71:04:b8:48:bf:51:91:22:4e:90:c6:ad:91:cc:
         30:a5:e8:53:4f:64:b1:3d:7a:c8:cd:ae:b6:b8:7c:dc:c7:98:
         36:eb:a5:e4
-----BEGIN CERTIFICATE-----
MIIDwzCCAqugAwIBAgICAyEwDQYJKoZIhvcNAQENBQAwLTELMAkGA1UEBhMCSVQx
DDAKBgNVBAoMA0lHSTEQMA4GA1UEAwwHVGVzdCBDQTAeFw0xODEwMTUxNTU3MDVa
Fw0yODEwMTIxNTU3MDVaMC8xCzAJBgNVBAYTAklUMQwwCgYDVQQKDANJR0kxEjAQ
BgNVBAMMCXN0b3JtIGRldjCCASIwDQYJKoZIhvcNAQEBBQADggEPADCCAQoCggEB
AMuYkdSf9acKHM+4UX0u+qnH33R1u4EaUuClHkhWxYU5v5BKK77F74MKSuCGhIF5
FE+OcLqKo2gHoyy+dtb8KL+RMWdF6y62zjG9MtH0oIgM6S+g7neP2sEbULoNCQUp
ErFMmCj9asD8m9FAzVxZxH1Jv8EPpTpCfEENHiUuLi49DCP7nx9G7PNiqqbKhanq
7FGYJm4avc0O6yJJsubEmS9rPLqCCUZ0sxmm3Lmhg23VKGJDuhvz4R1hYYeyyxsU
SQLe2RDK1wzaxsMc8qtIJ40QF4tWy13U9hllTHglyz2+pZN3zqJ3l960JI6qO9zG
+FfZqbpC2Xp3pErcdgcrQ8MCAwEAAaOB6jCB5zAMBgNVHRMBAf8EAjAAMB0GA1Ud
DgQWBBSvUuqsIohw5caqrsyt+8qV6xc7FTAOBgNVHQ8BAf8EBAMCBeAwPgYDVR0l
BDcwNQYIKwYBBQUHAwEGCCsGAQUFBwMCBgorBgEEAYI3CgMDBglghkgBhvhCBAEG
CCsGAQUFBwMEMB8GA1UdIwQYMBaAFJF3NnsutGnzJ+q39giLSiOiEUnGMEcGA1Ud
EQRAMD6CDXN0b3JtLmV4YW1wbGWCE3N0b3JtLWFsaWFzLmV4YW1wbGWCDW90aGVy
LmV4YW1wbGWCCWxvY2FsaG9zdDANBgkqhkiG9w0BAQ0FAAOCAQEAtTaaLeR5Vhoc
0DTk2AYqA5RlzKdxv4jG+R2/IBjUJWqKpV6XZI4j0lEK+zqWaPajdb10bT1NBVQc
tEPuM71mgO6BUPSc6jh0IvOrsUEEf/VkB0l4nnOlAA2P5snsvDv3AH6eCRqbpECn
OZAc+srsMVNSJ5OI2xiz8Ld/ZU4GxfW0nmyvae/a6kzoUO3cSaf+aZDPd2lYSQoc
UF6rJrBSMcpvihF4gMWeT0NAYPOZRk2NUVrlBJCezkBKxTWx8dFjhotCc3l69zPT
aSJFooIMBWl9ACvlyUQ4+K7hgXEEuEi/UZEiTpDGrZHMMKXoU09ksT16yM2utrh8
3MeYNuul5A==
-----END CERTIFICATE-----
