Certificate:
    Data:
        Version: 3 (0x2)
        Serial Number: 795 (0x31b)
        Signature Algorithm: sha512WithRSAEncryption
        Issuer: C=IT, O=IGI, CN=Test CA
        Validity
            Not Before: May 24 18:02:21 2018 GMT
            Not After : May 21 18:02:21 2028 GMT
        Subject: C=IT, O=IGI, CN=storm.example
        Subject Public Key Info:
            Public Key Algorithm: rsaEncryption
            RSA Public Key: (2048 bit)
                Modulus (2048 bit):
                    00:94:c1:8d:2f:12:0c:ec:90:a1:d7:c9:14:8e:35:
                    09:05:bf:0e:bc:43:96:58:e7:23:c7:0c:4d:fe:08:
                    31:7f:b7:a7:be:8b:47:6c:54:44:d8:ff:db:78:f7:
                    17:5b:b6:86:95:94:f2:45:4f:50:06:4c:d4:c2:8d:
                    68:83:11:20:2e:8f:73:30:c0:5d:96:58:37:82:e2:
                    88:66:a3:23:46:74:c9:30:fd:09:99:bf:40:95:16:
                    66:05:c7:a1:1c:1f:80:78:ff:a4:e3:13:69:8c:50:
                    2e:37:d3:9f:26:de:aa:35:ef:d9:74:65:ea:4a:97:
                    2c:2b:bb:53:b6:7a:4b:28:42:58:1f:b3:8f:77:aa:
                    f4:d4:39:65:90:06:f0:71:48:6c:33:b7:70:84:38:
                    94:77:58:b0:2c:b3:ba:94:3d:82:08:c2:82:c2:e6:
                    05:c3:9a:5d:6f:3d:2d:8b:17:0c:94:87:57:87:9d:
                    8c:15:28:10:df:c0:b6:5f:21:59:36:eb:ad:62:e9:
                    b2:7f:2f:ce:27:b3:24:c3:6c:b0:80:3e:16:bf:61:
                    08:1c:c3:0d:96:5a:07:2f:28:59:4c:e8:aa:02:f0:
                    ad:73:3b:dd:ae:22:d4:95:43:b1:41:c4:2c:23:eb:
                    c5:4b:48:5b:05:a9:48:5f:02:b3:96:eb:d7:5b:d9:
                    74:ff
                Exponent: 65537 (0x10001)
        X509v3 extensions:
            X509v3 Basic Constraints: critical
                CA:FALSE
            X509v3 Subject Key Identifier: 
                EA:BE:07:28:D8:10:17:D1:5F:92:57:77:B3:56:AB:B3:49:B5:05:B0
            X509v3 Key Usage: critical
                Digital Signature, Non Repudiation, Key Encipherment
            X509v3 Extended Key Usage: 
                TLS Web Server Authentication, TLS Web Client Authentication, Microsoft Server Gated Crypto, Netscape Server Gated Crypto, E-mail Protection
            X509v3 Authority Key Identifier: 
                keyid:91:77:36:7B:2E:B4:69:F3:27:EA:B7:F6:08:8B:4A:23:A2:11:49:C6

            X509v3 Subject Alternative Name: 
                DNS:storm.example
    Signature Algorithm: sha512WithRSAEncryption
        81:3d:36:ba:2d:f2:68:a0:04:1e:42:22:b9:cd:b4:ce:fd:8e:
        fd:74:9e:78:a4:20:80:c4:72:0d:9a:d5:2f:96:28:cb:d7:f2:
        d7:78:22:61:ae:b6:e1:5b:13:63:74:ea:6d:56:93:4f:28:80:
        2c:8d:21:19:77:69:2c:5e:94:8c:00:42:75:c4:60:75:a6:29:
        6e:92:db:b8:6e:10:d1:27:db:e2:9b:ae:83:a3:8b:68:c8:57:
        29:90:a6:52:de:24:40:e8:71:82:86:ee:b3:ab:d1:c0:6b:92:
        bc:3c:6e:a6:12:4d:b1:65:f0:52:eb:7d:82:cf:25:4f:91:cd:
        a8:bb:f3:7c:3c:fa:6e:87:5e:59:64:08:96:63:bb:11:f4:0e:
        0c:b3:5c:dc:a7:5f:5f:22:8a:50:e6:bb:09:ef:86:ae:8f:85:
        86:e9:6d:7c:93:88:83:71:a9:a7:19:6b:38:c6:f8:ec:8c:f3:
        a3:96:bc:b2:0c:d7:e5:39:14:9e:64:a7:5e:46:32:98:db:a7:
        49:bf:a1:23:b4:85:78:5c:73:d4:44:9c:91:28:73:96:41:0d:
        23:55:94:c5:87:36:df:59:62:51:64:57:b9:41:35:9f:10:7d:
        03:91:c6:88:51:2c:b1:47:e2:1e:85:ba:82:ab:f3:39:48:48:
        2e:5c:51:0f
-----BEGIN CERTIFICATE-----
MIIDmDCCAoCgAwIBAgICAxswDQYJKoZIhvcNAQENBQAwLTELMAkGA1UEBhMCSVQx
DDAKBgNVBAoMA0lHSTEQMA4GA1UEAwwHVGVzdCBDQTAeFw0xODA1MjQxODAyMjFa
Fw0yODA1MjExODAyMjFaMDMxCzAJBgNVBAYTAklUMQwwCgYDVQQKDANJR0kxFjAU
BgNVBAMMDXN0b3JtLmV4YW1wbGUwggEiMA0GCSqGSIb3DQEBAQUAA4IBDwAwggEK
AoIBAQCUwY0vEgzskKHXyRSONQkFvw68Q5ZY5yPHDE3+CDF/t6e+i0dsVETY/9t4
9xdbtoaVlPJFT1AGTNTCjWiDESAuj3MwwF2WWDeC4ohmoyNGdMkw/QmZv0CVFmYF
x6EcH4B4/6TjE2mMUC43058m3qo179l0ZepKlywru1O2eksoQlgfs493qvTUOWWQ
BvBxSGwzt3CEOJR3WLAss7qUPYIIwoLC5gXDml1vPS2LFwyUh1eHnYwVKBDfwLZf
IVk2661i6bJ/L84nsyTDbLCAPha/YQgcww2WWgcvKFlM6KoC8K1zO92uItSVQ7FB
xCwj68VLSFsFqUhfArOW69db2XT/AgMBAAGjgbswgbgwDAYDVR0TAQH/BAIwADAd
BgNVHQ4EFgQU6r4HKNgQF9Ffkld3s1ars0m1BbAwDgYDVR0PAQH/BAQDAgXgMD4G
A1UdJQQ3MDUGCCsGAQUFBwMBBggrBgEFBQcDAgYKKwYBBAGCNwoDAwYJYIZIAYb4
QgQBBggrBgEFBQcDBDAfBgNVHSMEGDAWgBSRdzZ7LrRp8yfqt/YIi0ojohFJxjAY
BgNVHREEETAPgg1zdG9ybS5leGFtcGxlMA0GCSqGSIb3DQEBDQUAA4IBAQCBPTa6
LfJooAQeQiK5zbTO/Y79dJ54pCCAxHINmtUvlijL1/LXeCJhrrbhWxNjdOptVpNP
KIAsjSEZd2ksXpSMAEJ1xGB1piluktu4bhDRJ9vim66Do4toyFcpkKZS3iRA6HGC
hu6zq9HAa5K8PG6mEk2xZfBS632CzyVPkc2ou/N8PPpuh15ZZAiWY7sR9A4Ms1zc
p19fIopQ5rsJ74auj4WG6W18k4iDcamnGWs4xvjsjPOjlryyDNflORSeZKdeRjKY
26dJv6EjtIV4XHPURJyRKHOWQQ0jVZTFhzbfWWJRZFe5QTWfEH0DkcaIUSyxR+Ie
hbqCq/M5SEguXFEP
-----END CERTIFICATE-----
